target datalayout = "e-m:e-p270:32:32-p271:32:32-p272:64:64-i64:64-i128:128-f80:128-n8:16:32:64-S128"
target triple = "x86_64-pc-linux-gnu"

%struct.SMgrRelationData = type { %struct.RelFileLocatorBackend, i32, [4 x i32], i32, [4 x i32], [4 x ptr], i32, %struct.dlist_node }
%struct.RelFileLocatorBackend = type { %struct.RelFileLocator, i32 }
%struct.RelFileLocator = type { i32, i32, i32 }
%struct.dlist_node = type { ptr, ptr }
%struct._MdfdVec = type { i32, i32 }

@.str.2 = private unnamed_addr constant [5 x i8] c"md.c\00", align 1
@.str.3 = private unnamed_addr constant [41 x i8] c"cannot extend file \22%s\22 beyond %u blocks\00", align 1
@.str.4 = private unnamed_addr constant [31 x i8] c"could not extend file \22%s\22: %m\00", align 1
@.str.5 = private unnamed_addr constant [23 x i8] c"Check free disk space.\00", align 1
@__func__.mdzeroextend = private unnamed_addr constant [13 x i8] c"mdzeroextend\00", align 1
@.str.7 = private unnamed_addr constant [52 x i8] c"could not extend file \22%s\22 with FileFallocate(): %m\00", align 1

; Function Attrs: nounwind uwtable
define dso_local void @mdzeroextend(ptr noundef %0, i32 noundef %1, i32 noundef %2, i32 noundef %3, i1 noundef zeroext %4) #0 {
  %6 = alloca ptr, align 8
  %7 = alloca i32, align 4
  %8 = alloca i32, align 4
  %9 = alloca i32, align 4
  %10 = alloca i8, align 1
  %11 = alloca ptr, align 8
  %12 = alloca i32, align 4
  %13 = alloca i32, align 4
  %14 = alloca i32, align 4
  %15 = alloca i64, align 8
  %16 = alloca i32, align 4
  %17 = alloca i32, align 4
  %18 = alloca i32, align 4
  store ptr %0, ptr %6, align 8
  store i32 %1, ptr %7, align 4
  store i32 %2, ptr %8, align 4
  store i32 %3, ptr %9, align 4
  %19 = zext i1 %4 to i8
  store i8 %19, ptr %10, align 1
  call void @llvm.lifetime.start.p0(i64 8, ptr %11) #10
  call void @llvm.lifetime.start.p0(i64 4, ptr %12) #10
  %20 = load i32, ptr %8, align 4
  store i32 %20, ptr %12, align 4
  call void @llvm.lifetime.start.p0(i64 4, ptr %13) #10
  %21 = load i32, ptr %9, align 4
  store i32 %21, ptr %13, align 4
  %22 = load i32, ptr %8, align 4
  %23 = zext i32 %22 to i64
  %24 = load i32, ptr %9, align 4
  %25 = sext i32 %24 to i64
  %26 = add i64 %23, %25
  %27 = icmp uge i64 %26, 4294967295
  br i1 %27, label %28, label %61

28:                                               ; preds = %5
  br label %29

29:                                               ; preds = %28
  br i1 true, label %30, label %32

30:                                               ; preds = %29
  %31 = call zeroext i1 @errstart_cold(i32 noundef 21, ptr noundef null) #12
  br i1 %31, label %34, label %58

32:                                               ; preds = %29
  %33 = call zeroext i1 @errstart(i32 noundef 21, ptr noundef null)
  br i1 %33, label %34, label %58

34:                                               ; preds = %32, %30
  %35 = call i32 @errcode(i32 noundef 261)
  %36 = load ptr, ptr %6, align 8
  %37 = getelementptr inbounds nuw %struct.SMgrRelationData, ptr %36, i32 0, i32 0
  %38 = getelementptr inbounds nuw %struct.RelFileLocatorBackend, ptr %37, i32 0, i32 0
  %39 = getelementptr inbounds nuw %struct.RelFileLocator, ptr %38, i32 0, i32 1
  %40 = load i32, ptr %39, align 4
  %41 = load ptr, ptr %6, align 8
  %42 = getelementptr inbounds nuw %struct.SMgrRelationData, ptr %41, i32 0, i32 0
  %43 = getelementptr inbounds nuw %struct.RelFileLocatorBackend, ptr %42, i32 0, i32 0
  %44 = getelementptr inbounds nuw %struct.RelFileLocator, ptr %43, i32 0, i32 0
  %45 = load i32, ptr %44, align 8
  %46 = load ptr, ptr %6, align 8
  %47 = getelementptr inbounds nuw %struct.SMgrRelationData, ptr %46, i32 0, i32 0
  %48 = getelementptr inbounds nuw %struct.RelFileLocatorBackend, ptr %47, i32 0, i32 0
  %49 = getelementptr inbounds nuw %struct.RelFileLocator, ptr %48, i32 0, i32 2
  %50 = load i32, ptr %49, align 8
  %51 = load ptr, ptr %6, align 8
  %52 = getelementptr inbounds nuw %struct.SMgrRelationData, ptr %51, i32 0, i32 0
  %53 = getelementptr inbounds nuw %struct.RelFileLocatorBackend, ptr %52, i32 0, i32 1
  %54 = load i32, ptr %53, align 4
  %55 = load i32, ptr %7, align 4
  %56 = call ptr @GetRelationPath(i32 noundef %40, i32 noundef %45, i32 noundef %50, i32 noundef %54, i32 noundef %55)
  %57 = call i32 (ptr, ...) @errmsg(ptr noundef @.str.3, ptr noundef %56, i32 noundef -1)
  call void @errfinish(ptr noundef @.str.2, i32 noundef 541, ptr noundef @__func__.mdzeroextend)
  br label %58

58:                                               ; preds = %34, %32, %30
  unreachable

59:                                               ; No predecessors!
  br label %60

60:                                               ; preds = %59
  br label %61

61:                                               ; preds = %60, %5
  br label %62

62:                                               ; preds = %160, %61
  %63 = load i32, ptr %13, align 4
  %64 = icmp sgt i32 %63, 0
  br i1 %64, label %65, label %167

65:                                               ; preds = %62
  call void @llvm.lifetime.start.p0(i64 4, ptr %14) #10
  %66 = load i32, ptr %12, align 4
  %67 = urem i32 %66, 131072
  store i32 %67, ptr %14, align 4
  call void @llvm.lifetime.start.p0(i64 8, ptr %15) #10
  %68 = load i32, ptr %14, align 4
  %69 = zext i32 %68 to i64
  %70 = mul i64 8192, %69
  store i64 %70, ptr %15, align 8
  call void @llvm.lifetime.start.p0(i64 4, ptr %16) #10
  %71 = load i32, ptr %14, align 4
  %72 = load i32, ptr %13, align 4
  %73 = add i32 %71, %72
  %74 = icmp ugt i32 %73, 131072
  br i1 %74, label %75, label %78

75:                                               ; preds = %65
  %76 = load i32, ptr %14, align 4
  %77 = sub i32 131072, %76
  store i32 %77, ptr %16, align 4
  br label %80

78:                                               ; preds = %65
  %79 = load i32, ptr %13, align 4
  store i32 %79, ptr %16, align 4
  br label %80

80:                                               ; preds = %78, %75
  %81 = load ptr, ptr %6, align 8
  %82 = load i32, ptr %7, align 4
  %83 = load i32, ptr %12, align 4
  %84 = load i8, ptr %10, align 1, !range !4, !noundef !5
  %85 = trunc i8 %84 to i1
  %86 = call ptr @_mdfd_getseg(ptr noundef %81, i32 noundef %82, i32 noundef %83, i1 noundef zeroext %85, i32 noundef 4)
  store ptr %86, ptr %11, align 8
  %87 = load i32, ptr %16, align 4
  %88 = icmp sgt i32 %87, 8
  br i1 %88, label %89, label %118

89:                                               ; preds = %80
  call void @llvm.lifetime.start.p0(i64 4, ptr %17) #10
  %90 = load ptr, ptr %11, align 8
  %91 = getelementptr inbounds nuw %struct._MdfdVec, ptr %90, i32 0, i32 0
  %92 = load i32, ptr %91, align 4
  %93 = load i64, ptr %15, align 8
  %94 = load i32, ptr %16, align 4
  %95 = sext i32 %94 to i64
  %96 = mul i64 8192, %95
  %97 = call i32 @FileFallocate(i32 noundef %92, i64 noundef %93, i64 noundef %96, i32 noundef 167772173)
  store i32 %97, ptr %17, align 4
  %98 = load i32, ptr %17, align 4
  %99 = icmp ne i32 %98, 0
  br i1 %99, label %100, label %117

100:                                              ; preds = %89
  br label %101

101:                                              ; preds = %100
  br i1 true, label %102, label %104

102:                                              ; preds = %101
  %103 = call zeroext i1 @errstart_cold(i32 noundef 21, ptr noundef null) #12
  br i1 %103, label %106, label %114

104:                                              ; preds = %101
  %105 = call zeroext i1 @errstart(i32 noundef 21, ptr noundef null)
  br i1 %105, label %106, label %114

106:                                              ; preds = %104, %102
  %107 = call i32 @errcode_for_file_access()
  %108 = load ptr, ptr %11, align 8
  %109 = getelementptr inbounds nuw %struct._MdfdVec, ptr %108, i32 0, i32 0
  %110 = load i32, ptr %109, align 4
  %111 = call ptr @FilePathName(i32 noundef %110)
  %112 = call i32 (ptr, ...) @errmsg(ptr noundef @.str.7, ptr noundef %111)
  %113 = call i32 (ptr, ...) @errhint(ptr noundef @.str.5)
  call void @errfinish(ptr noundef @.str.2, i32 noundef 583, ptr noundef @__func__.mdzeroextend)
  br label %114

114:                                              ; preds = %106, %104, %102
  unreachable

115:                                              ; No predecessors!
  br label %116

116:                                              ; preds = %115
  br label %117

117:                                              ; preds = %116, %89
  call void @llvm.lifetime.end.p0(i64 4, ptr %17) #10
  br label %147

118:                                              ; preds = %80
  call void @llvm.lifetime.start.p0(i64 4, ptr %18) #10
  %119 = load ptr, ptr %11, align 8
  %120 = getelementptr inbounds nuw %struct._MdfdVec, ptr %119, i32 0, i32 0
  %121 = load i32, ptr %120, align 4
  %122 = load i64, ptr %15, align 8
  %123 = load i32, ptr %16, align 4
  %124 = sext i32 %123 to i64
  %125 = mul i64 8192, %124
  %126 = call i32 @FileZero(i32 noundef %121, i64 noundef %122, i64 noundef %125, i32 noundef 167772173)
  store i32 %126, ptr %18, align 4
  %127 = load i32, ptr %18, align 4
  %128 = icmp slt i32 %127, 0
  br i1 %128, label %129, label %146

129:                                              ; preds = %118
  br label %130

130:                                              ; preds = %129
  br i1 true, label %131, label %133

131:                                              ; preds = %130
  %132 = call zeroext i1 @errstart_cold(i32 noundef 21, ptr noundef null) #12
  br i1 %132, label %135, label %143

133:                                              ; preds = %130
  %134 = call zeroext i1 @errstart(i32 noundef 21, ptr noundef null)
  br i1 %134, label %135, label %143

135:                                              ; preds = %133, %131
  %136 = call i32 @errcode_for_file_access()
  %137 = load ptr, ptr %11, align 8
  %138 = getelementptr inbounds nuw %struct._MdfdVec, ptr %137, i32 0, i32 0
  %139 = load i32, ptr %138, align 4
  %140 = call ptr @FilePathName(i32 noundef %139)
  %141 = call i32 (ptr, ...) @errmsg(ptr noundef @.str.4, ptr noundef %140)
  %142 = call i32 (ptr, ...) @errhint(ptr noundef @.str.5)
  call void @errfinish(ptr noundef @.str.2, i32 noundef 605, ptr noundef @__func__.mdzeroextend)
  br label %143

143:                                              ; preds = %135, %133, %131
  unreachable

144:                                              ; No predecessors!
  br label %145

145:                                              ; preds = %144
  br label %146

146:                                              ; preds = %145, %118
  call void @llvm.lifetime.end.p0(i64 4, ptr %18) #10
  br label %147

147:                                              ; preds = %146, %117
  %148 = load i8, ptr %10, align 1, !range !4, !noundef !5
  %149 = trunc i8 %148 to i1
  br i1 %149, label %160, label %150

150:                                              ; preds = %147
  %151 = load ptr, ptr %6, align 8
  %152 = getelementptr inbounds nuw %struct.SMgrRelationData, ptr %151, i32 0, i32 0
  %153 = getelementptr inbounds nuw %struct.RelFileLocatorBackend, ptr %152, i32 0, i32 1
  %154 = load i32, ptr %153, align 4
  %155 = icmp ne i32 %154, -1
  br i1 %155, label %160, label %156

156:                                              ; preds = %150
  %157 = load ptr, ptr %6, align 8
  %158 = load i32, ptr %7, align 4
  %159 = load ptr, ptr %11, align 8
  call void @register_dirty_segment(ptr noundef %157, i32 noundef %158, ptr noundef %159)
  br label %160

160:                                              ; preds = %156, %150, %147
  %161 = load i32, ptr %16, align 4
  %162 = load i32, ptr %13, align 4
  %163 = sub i32 %162, %161
  store i32 %163, ptr %13, align 4
  %164 = load i32, ptr %16, align 4
  %165 = load i32, ptr %12, align 4
  %166 = add i32 %165, %164
  store i32 %166, ptr %12, align 4
  call void @llvm.lifetime.end.p0(i64 4, ptr %16) #10
  call void @llvm.lifetime.end.p0(i64 8, ptr %15) #10
  call void @llvm.lifetime.end.p0(i64 4, ptr %14) #10
  br label %62, !llvm.loop !10

167:                                              ; preds = %62
  call void @llvm.lifetime.end.p0(i64 4, ptr %13) #10
  call void @llvm.lifetime.end.p0(i64 4, ptr %12) #10
  call void @llvm.lifetime.end.p0(i64 8, ptr %11) #10
  ret void
}