; Function Attrs: nounwind uwtable
define dso_local void @mdzeroextend(ptr noundef captures(none) %0, i32 noundef %1, i32 noundef %2, i32 noundef %3, i1 noundef zeroext %4) local_unnamed_addr #0 {
  %6 = zext i32 %2 to i64
  %7 = sext i32 %3 to i64
  %8 = add nsw i64 %7, %6
  %9 = icmp ugt i64 %8, 4294967294
  br i1 %9, label %32, label %.preheader

.preheader:                                       ; preds = %5
  %10 = icmp sgt i32 %3, 0
  br i1 %10, label %.lr.ph, label %._crit_edge

.lr.ph:                                           ; preds = %.preheader
  %11 = getelementptr inbounds nuw i8, ptr %0, i64 12
  br i1 %4, label %.lr.ph.split.us, label %.lr.ph.split

.lr.ph.split.us:                                  ; preds = %.lr.ph, %28
  %.044.us = phi i32 [ %30, %28 ], [ %2, %.lr.ph ]
  %.03943.us = phi i32 [ %29, %28 ], [ %3, %.lr.ph ]
  %12 = and i32 %.044.us, 131071
  %13 = shl nuw nsw i32 %12, 13
  %14 = zext nneg i32 %13 to i64
  %15 = add nuw i32 %12, %.03943.us
  %16 = icmp ugt i32 %15, 131072
  %17 = sub nuw nsw i32 131072, %12
  %.040.us = select i1 %16, i32 %17, i32 %.03943.us
  %18 = tail call fastcc ptr @_mdfd_getseg(ptr noundef %0, i32 noundef %1, i32 noundef %.044.us, i1 noundef zeroext true, i32 noundef 4)
  %19 = icmp samesign ugt i32 %.040.us, 8
  %20 = load i32, ptr %18, align 4
  %21 = shl nuw nsw i32 %.040.us, 13
  %22 = zext nneg i32 %21 to i64
  br i1 %19, label %26, label %23

23:                                               ; preds = %.lr.ph.split.us
  %24 = tail call i32 @FileZero(i32 noundef %20, i64 noundef %14, i64 noundef %22, i32 noundef 167772173) #15
  %25 = icmp slt i32 %24, 0
  br i1 %25, label %.split.us, label %28

26:                                               ; preds = %.lr.ph.split.us
  %27 = tail call i32 @FileFallocate(i32 noundef %20, i64 noundef %14, i64 noundef %22, i32 noundef 167772173) #15
  %.not.us = icmp eq i32 %27, 0
  br i1 %.not.us, label %28, label %.split46.us

28:                                               ; preds = %26, %23
  %29 = sub nsw i32 %.03943.us, %.040.us
  %30 = add i32 %.040.us, %.044.us
  %31 = icmp sgt i32 %29, 0
  br i1 %31, label %.lr.ph.split.us, label %._crit_edge, !llvm.loop !10

32:                                               ; preds = %5
  %33 = tail call zeroext i1 @errstart_cold(i32 noundef 21, ptr noundef null) #17
  tail call void @llvm.assume(i1 %33)
  %34 = tail call i32 @errcode(i32 noundef 261) #15
  %35 = getelementptr inbounds nuw i8, ptr %0, i64 4
  %36 = load i32, ptr %35, align 4
  %37 = load i32, ptr %0, align 8
  %38 = getelementptr inbounds nuw i8, ptr %0, i64 8
  %39 = load i32, ptr %38, align 8
  %40 = getelementptr inbounds nuw i8, ptr %0, i64 12
  %41 = load i32, ptr %40, align 4
  %42 = tail call ptr @GetRelationPath(i32 noundef %36, i32 noundef %37, i32 noundef %39, i32 noundef %41, i32 noundef %1) #15
  %43 = tail call i32 (ptr, ...) @errmsg(ptr noundef nonnull @.str.3, ptr noundef %42, i32 noundef -1) #15
  tail call void @errfinish(ptr noundef nonnull @.str.2, i32 noundef 541, ptr noundef nonnull @__func__.mdzeroextend) #15
  unreachable

.lr.ph.split:                                     ; preds = %.lr.ph, %75
  %.044 = phi i32 [ %77, %75 ], [ %2, %.lr.ph ]
  %.03943 = phi i32 [ %76, %75 ], [ %3, %.lr.ph ]
  %44 = and i32 %.044, 131071
  %45 = shl nuw nsw i32 %44, 13
  %46 = zext nneg i32 %45 to i64
  %47 = add nuw i32 %44, %.03943
  %48 = icmp ugt i32 %47, 131072
  %49 = sub nuw nsw i32 131072, %44
  %.040 = select i1 %48, i32 %49, i32 %.03943
  %50 = tail call fastcc ptr @_mdfd_getseg(ptr noundef %0, i32 noundef %1, i32 noundef %.044, i1 noundef zeroext false, i32 noundef 4)
  %51 = icmp samesign ugt i32 %.040, 8
  %52 = load i32, ptr %50, align 4
  %53 = shl nuw nsw i32 %.040, 13
  %54 = zext nneg i32 %53 to i64
  br i1 %51, label %55, label %63

55:                                               ; preds = %.lr.ph.split
  %56 = tail call i32 @FileFallocate(i32 noundef %52, i64 noundef %46, i64 noundef %54, i32 noundef 167772173) #15
  %.not = icmp eq i32 %56, 0
  br i1 %.not, label %72, label %.split46.us

.split46.us:                                      ; preds = %55, %26
  %.us-phi47 = phi ptr [ %18, %26 ], [ %50, %55 ]
  %57 = tail call zeroext i1 @errstart_cold(i32 noundef 21, ptr noundef null) #17
  tail call void @llvm.assume(i1 %57)
  %58 = tail call i32 @errcode_for_file_access() #15
  %59 = load i32, ptr %.us-phi47, align 4
  %60 = tail call ptr @FilePathName(i32 noundef %59) #15
  %61 = tail call i32 (ptr, ...) @errmsg(ptr noundef nonnull @.str.7, ptr noundef %60) #15
  %62 = tail call i32 (ptr, ...) @errhint(ptr noundef nonnull @.str.5) #15
  tail call void @errfinish(ptr noundef nonnull @.str.2, i32 noundef 583, ptr noundef nonnull @__func__.mdzeroextend) #15
  unreachable

63:                                               ; preds = %.lr.ph.split
  %64 = tail call i32 @FileZero(i32 noundef %52, i64 noundef %46, i64 noundef %54, i32 noundef 167772173) #15
  %65 = icmp slt i32 %64, 0
  br i1 %65, label %.split.us, label %72

.split.us:                                        ; preds = %63, %23
  %.us-phi = phi ptr [ %18, %23 ], [ %50, %63 ]
  %66 = tail call zeroext i1 @errstart_cold(i32 noundef 21, ptr noundef null) #17
  tail call void @llvm.assume(i1 %66)
  %67 = tail call i32 @errcode_for_file_access() #15
  %68 = load i32, ptr %.us-phi, align 4
  %69 = tail call ptr @FilePathName(i32 noundef %68) #15
  %70 = tail call i32 (ptr, ...) @errmsg(ptr noundef nonnull @.str.4, ptr noundef %69) #15
  %71 = tail call i32 (ptr, ...) @errhint(ptr noundef nonnull @.str.5) #15
  tail call void @errfinish(ptr noundef nonnull @.str.2, i32 noundef 605, ptr noundef nonnull @__func__.mdzeroextend) #15
  unreachable

72:                                               ; preds = %63, %55
  %73 = load i32, ptr %11, align 4
  %.not41 = icmp eq i32 %73, -1
  br i1 %.not41, label %74, label %75

74:                                               ; preds = %72
  tail call fastcc void @register_dirty_segment(ptr noundef nonnull %0, i32 noundef %1, ptr noundef nonnull %50)
  br label %75

75:                                               ; preds = %74, %72
  %76 = sub nsw i32 %.03943, %.040
  %77 = add i32 %.040, %.044
  %78 = icmp sgt i32 %76, 0
  br i1 %78, label %.lr.ph.split, label %._crit_edge, !llvm.loop !10

._crit_edge:                                      ; preds = %75, %28, %.preheader
  ret void
}